target datalayout = "e-m:e-p270:32:32-p271:32:32-p272:64:64-i64:64-i128:128-f80:128-n8:16:32:64-S128"
target triple = "x86_64-pc-linux-gnu"

%"struct.std::_Rb_tree_header" = type { %"struct.std::_Rb_tree_node_base", i64 }
%"struct.std::_Rb_tree_node_base" = type { i32, ptr, ptr, ptr }
%"class.vcg::Matrix44" = type { %"struct.std::array" }
%"struct.std::array" = type { [16 x float] }
%class.QString = type { ptr }
%"class.vcg::Color4" = type { %"class.vcg::Point4" }
%"class.vcg::Point4" = type { [4 x i8] }
%class.GLArea = type <{ %class.QGLWidget, i32, [4 x i8], ptr, %"class.vcg::Trackball", %"class.vcg::Trackball", %class.GLAreaSetting, %class.QMap, %class.QList, i8, i8, [6 x i8], %class.QString, %class.QMap.33, i8, i8, i8, i8, i8, i8, i8, i8, %class.QString, %class.QString, i8, [3 x i8], %"class.vcg::Point2", [4 x i8], ptr, ptr, ptr, %class.QFont, ptr, ptr, ptr, %class.QMap.34, ptr, float, float, float, float, float, [4 x i8], %class.SnapshotSetting, i32, [4 x i8], %class.QMap.35, %class.QMap.35, float, float, %class.QImage, i8, [3 x i8], i32, i32, i32, i32, i32, i8, [3 x i8], i32, i32, i8, [3 x i8], float, i32, %class.QString, i32, [4 x i8] }>
%class.QGLWidget = type { %class.QWidget }
%class.QWidget = type { %class.QObject, %class.QPaintDevice, ptr }
%class.QObject = type { ptr, %class.QScopedPointer }
%class.QScopedPointer = type { ptr }
%class.QPaintDevice = type { ptr, i16, ptr }
%"class.vcg::Trackball" = type <{ %"class.vcg::Transform", %"class.vcg::View", i32, ptr, ptr, ptr, %"class.std::map.17", %"class.vcg::Similarityf", %"class.vcg::Similarityf", %"class.vcg::Similarityf", %"class.vcg::Point3", [4 x i8], %"class.std::vector.25", i8, [3 x i8], i32, i32, %"class.vcg::Quaternion", i8, i8, [2 x i8], %"class.std::__cxx11::list", i32, i8, [3 x i8] }>
%"class.vcg::Transform" = type { %"class.vcg::Similarityf", %"class.vcg::Point3", float }
%"class.vcg::View" = type <{ %"class.vcg::Matrix44", %"class.vcg::Matrix44", %"class.vcg::Matrix44", %"class.vcg::Matrix44", [4 x i32], i8, [3 x i8] }>
%"class.std::map.17" = type { %"class.std::_Rb_tree.18" }
%"class.std::_Rb_tree.18" = type { %"struct.std::_Rb_tree<int, std::pair<const int, vcg::TrackMode *>, std::_Select1st<std::pair<const int, vcg::TrackMode *>>, std::less<int>>::_Rb_tree_impl" }
%"struct.std::_Rb_tree<int, std::pair<const int, vcg::TrackMode *>, std::_Select1st<std::pair<const int, vcg::TrackMode *>>, std::less<int>>::_Rb_tree_impl" = type { %"struct.std::_Rb_tree_key_compare.22", %"struct.std::_Rb_tree_header" }
%"struct.std::_Rb_tree_key_compare.22" = type { %"struct.std::less.23" }
%"struct.std::less.23" = type { i8 }
%"class.vcg::Similarityf" = type { %"class.vcg::Similarity" }
%"class.vcg::Similarity" = type { %"class.vcg::Quaternion", %"class.vcg::Point3", float }
%"class.vcg::Point3" = type { [3 x float] }
%"class.std::vector.25" = type { %"struct.std::_Vector_base.26" }
%"struct.std::_Vector_base.26" = type { %"struct.std::_Vector_base<vcg::Point3<float>, std::allocator<vcg::Point3<float>>>::_Vector_impl" }
%"struct.std::_Vector_base<vcg::Point3<float>, std::allocator<vcg::Point3<float>>>::_Vector_impl" = type { %"struct.std::_Vector_base<vcg::Point3<float>, std::allocator<vcg::Point3<float>>>::_Vector_impl_data" }
%"struct.std::_Vector_base<vcg::Point3<float>, std::allocator<vcg::Point3<float>>>::_Vector_impl_data" = type { ptr, ptr, ptr }
%"class.vcg::Quaternion" = type { %"class.vcg::Point4.16" }
%"class.vcg::Point4.16" = type { [4 x float] }
%"class.std::__cxx11::list" = type { %"class.std::__cxx11::_List_base" }
%"class.std::__cxx11::_List_base" = type { %"struct.std::__cxx11::_List_base<vcg::Transform, std::allocator<vcg::Transform>>::_List_impl" }
%"struct.std::__cxx11::_List_base<vcg::Transform, std::allocator<vcg::Transform>>::_List_impl" = type { %"struct.std::__detail::_List_node_header" }
%"struct.std::__detail::_List_node_header" = type { %"struct.std::__detail::_List_node_base", i64 }
%"struct.std::__detail::_List_node_base" = type { ptr, ptr }
%class.GLAreaSetting = type { %"class.vcg::Color4", %"class.vcg::Color4", %"class.vcg::Color4", %"class.vcg::Color4", %"class.vcg::Color4", %"class.vcg::Color4", %"class.vcg::Color4", %"class.vcg::Color4", %"class.vcg::Color4", i32, i32, i32, i8, i8, float, i8, i8, i32, ptr }
%class.QMap = type { ptr }
%class.QList = type { %union.anon }
%union.anon = type { %struct.QListData }
%struct.QListData = type { ptr }
%class.QMap.33 = type { ptr }
%"class.vcg::Point2" = type { [2 x i32] }
%class.QFont = type <{ %class.QExplicitlySharedDataPointer, i32, [4 x i8] }>
%class.QExplicitlySharedDataPointer = type { ptr }
%class.QMap.34 = type { ptr }
%class.SnapshotSetting = type { %class.QString, %class.QString, i32, i32, i32, i8, i8, i8, i8 }
%class.QMap.35 = type { ptr }
%class.QImage = type { %class.QPaintDevice, ptr }

; Function Attrs: mustprogress nounwind uwtable
define linkonce_odr noundef double @_ZN3vcg4math5ToRadERKd(ptr noundef nonnull align 8 dereferenceable(8) %0) #4 comdat {
  %2 = alloca ptr, align 8
  store ptr %0, ptr %2, align 8
  %3 = load ptr, ptr %2, align 8
  %4 = load double, ptr %3, align 8
  %5 = fmul double 0x400921FB54442D18, %4
  %6 = fdiv double %5, 1.800000e+02
  ret double %6
}

; Function Attrs: mustprogress uwtable
define void @_ZN6GLArea12setTiledViewEdffddf(ptr noundef nonnull align 8 dereferenceable(1676) %0, double noundef %1, float noundef %2, float noundef %3, double noundef %4, double noundef %5, float noundef %6) #5 align 2 {
  %8 = alloca ptr, align 8
  %9 = alloca double, align 8
  %10 = alloca float, align 4
  %11 = alloca float, align 4
  %12 = alloca double, align 8
  %13 = alloca double, align 8
  %14 = alloca float, align 4
  %15 = alloca double, align 8
  %16 = alloca double, align 8
  %17 = alloca double, align 8
  %18 = alloca double, align 8
  %19 = alloca double, align 8
  %20 = alloca double, align 8
  %21 = alloca double, align 8
  %22 = alloca double, align 8
  %23 = alloca double, align 8
  %24 = alloca double, align 8
  %25 = alloca double, align 8
  %26 = alloca double, align 8
  %27 = alloca double, align 8
  store ptr %0, ptr %8, align 8
  store double %1, ptr %9, align 8
  store float %2, ptr %10, align 4
  store float %3, ptr %11, align 4
  store double %4, ptr %12, align 8
  store double %5, ptr %13, align 8
  store float %6, ptr %14, align 4
  %28 = load ptr, ptr %8, align 8
  call void @_ZN9QGLWidget11makeCurrentEv(ptr noundef nonnull align 8 dereferenceable(48) %28)
  %29 = load double, ptr %9, align 8
  %30 = fcmp ole double %29, 5.000000e+00
  br i1 %30, label %31, label %90

31:                                               ; preds = %7
  %32 = load float, ptr %10, align 4
  %33 = fneg float %32
  %34 = load float, ptr %11, align 4
  %35 = fmul float %33, %34
  %36 = fpext float %35 to double
  store double %36, ptr %15, align 8
  %37 = load float, ptr %10, align 4
  %38 = load float, ptr %11, align 4
  %39 = fmul float %37, %38
  %40 = fpext float %39 to double
  store double %40, ptr %16, align 8
  %41 = load float, ptr %10, align 4
  %42 = fneg float %41
  %43 = fpext float %42 to double
  store double %43, ptr %17, align 8
  %44 = load float, ptr %10, align 4
  %45 = fpext float %44 to double
  store double %45, ptr %18, align 8
  %46 = load double, ptr %16, align 8
  %47 = load double, ptr %15, align 8
  %48 = fsub double %46, %47
  %49 = call double @llvm.fabs.f64(double %48)
  %50 = getelementptr inbounds %class.GLArea, ptr %28, i32 0, i32 56
  %51 = load i32, ptr %50, align 8
  %52 = sitofp i32 %51 to double
  %53 = fdiv double %49, %52
  store double %53, ptr %19, align 8
  %54 = load double, ptr %18, align 8
  %55 = load double, ptr %17, align 8
  %56 = fsub double %54, %55
  %57 = call double @llvm.fabs.f64(double %56)
  %58 = getelementptr inbounds %class.GLArea, ptr %28, i32 0, i32 57
  %59 = load i32, ptr %58, align 4
  %60 = sitofp i32 %59 to double
  %61 = fdiv double %57, %60
  store double %61, ptr %20, align 8
  %62 = load double, ptr %15, align 8
  %63 = load double, ptr %19, align 8
  %64 = getelementptr inbounds %class.GLArea, ptr %28, i32 0, i32 54
  %65 = load i32, ptr %64, align 8
  %66 = sitofp i32 %65 to double
  %67 = call double @llvm.fmuladd.f64(double %63, double %66, double %62)
  %68 = load double, ptr %15, align 8
  %69 = load double, ptr %19, align 8
  %70 = getelementptr inbounds %class.GLArea, ptr %28, i32 0, i32 54
  %71 = load i32, ptr %70, align 8
  %72 = add nsw i32 %71, 1
  %73 = sitofp i32 %72 to double
  %74 = call double @llvm.fmuladd.f64(double %69, double %73, double %68)
  %75 = load double, ptr %17, align 8
  %76 = load double, ptr %20, align 8
  %77 = getelementptr inbounds %class.GLArea, ptr %28, i32 0, i32 55
  %78 = load i32, ptr %77, align 4
  %79 = sitofp i32 %78 to double
  %80 = call double @llvm.fmuladd.f64(double %76, double %79, double %75)
  %81 = load double, ptr %17, align 8
  %82 = load double, ptr %20, align 8
  %83 = getelementptr inbounds %class.GLArea, ptr %28, i32 0, i32 55
  %84 = load i32, ptr %83, align 4
  %85 = add nsw i32 %84, 1
  %86 = sitofp i32 %85 to double
  %87 = call double @llvm.fmuladd.f64(double %82, double %86, double %81)
  %88 = load double, ptr %12, align 8
  %89 = load double, ptr %13, align 8
  call void @glOrtho(double noundef %67, double noundef %74, double noundef %80, double noundef %87, double noundef %88, double noundef %89)
  br label %149

90:                                               ; preds = %7
  %91 = load double, ptr %12, align 8
  %92 = load double, ptr %9, align 8
  %93 = fdiv double %92, 2.000000e+00
  store double %93, ptr %22, align 8
  %94 = call noundef double @_ZN3vcg4math5ToRadERKd(ptr noundef nonnull align 8 dereferenceable(8) %22)
  %95 = call double @tan(double noundef %94) #3
  %96 = fmul double %91, %95
  store double %96, ptr %21, align 8
  %97 = load double, ptr %21, align 8
  %98 = load float, ptr %11, align 4
  %99 = fpext float %98 to double
  %100 = fmul double %97, %99
  store double %100, ptr %23, align 8
  %101 = load double, ptr %21, align 8
  %102 = fneg double %101
  store double %102, ptr %24, align 8
  %103 = load double, ptr %23, align 8
  %104 = fneg double %103
  store double %104, ptr %25, align 8
  %105 = load double, ptr %23, align 8
  %106 = load double, ptr %25, align 8
  %107 = fsub double %105, %106
  %108 = call double @llvm.fabs.f64(double %107)
  %109 = getelementptr inbounds %class.GLArea, ptr %28, i32 0, i32 56
  %110 = load i32, ptr %109, align 8
  %111 = sitofp i32 %110 to double
  %112 = fdiv double %108, %111
  store double %112, ptr %26, align 8
  %113 = load double, ptr %21, align 8
  %114 = load double, ptr %24, align 8
  %115 = fsub double %113, %114
  %116 = call double @llvm.fabs.f64(double %115)
  %117 = getelementptr inbounds %class.GLArea, ptr %28, i32 0, i32 57
  %118 = load i32, ptr %117, align 4
  %119 = sitofp i32 %118 to double
  %120 = fdiv double %116, %119
  store double %120, ptr %27, align 8
  %121 = load double, ptr %25, align 8
  %122 = load double, ptr %26, align 8
  %123 = getelementptr inbounds %class.GLArea, ptr %28, i32 0, i32 54
  %124 = load i32, ptr %123, align 8
  %125 = sitofp i32 %124 to double
  %126 = call double @llvm.fmuladd.f64(double %122, double %125, double %121)
  %127 = load double, ptr %25, align 8
  %128 = load double, ptr %26, align 8
  %129 = getelementptr inbounds %class.GLArea, ptr %28, i32 0, i32 54
  %130 = load i32, ptr %129, align 8
  %131 = add nsw i32 %130, 1
  %132 = sitofp i32 %131 to double
  %133 = call double @llvm.fmuladd.f64(double %128, double %132, double %127)
  %134 = load double, ptr %24, align 8
  %135 = load double, ptr %27, align 8
  %136 = getelementptr inbounds %class.GLArea, ptr %28, i32 0, i32 55
  %137 = load i32, ptr %136, align 4
  %138 = sitofp i32 %137 to double
  %139 = call double @llvm.fmuladd.f64(double %135, double %138, double %134)
  %140 = load double, ptr %24, align 8
  %141 = load double, ptr %27, align 8
  %142 = getelementptr inbounds %class.GLArea, ptr %28, i32 0, i32 55
  %143 = load i32, ptr %142, align 4
  %144 = add nsw i32 %143, 1
  %145 = sitofp i32 %144 to double
  %146 = call double @llvm.fmuladd.f64(double %141, double %145, double %140)
  %147 = load double, ptr %12, align 8
  %148 = load double, ptr %13, align 8
  call void @glFrustum(double noundef %126, double noundef %133, double noundef %139, double noundef %146, double noundef %147, double noundef %148)
  br label %149

149:                                              ; preds = %90, %31
  ret void
}