; Function Attrs: mustprogress uwtable
define void @_ZN6GLArea12setTiledViewEdffddf(ptr noundef nonnull align 8 dereferenceable(1676) %0, double noundef %1, float noundef %2, float noundef %3, double noundef %4, double noundef %5, float %6) local_unnamed_addr #9 align 2 {
  tail call void @_ZN9QGLWidget11makeCurrentEv(ptr noundef nonnull align 8 dereferenceable(48) %0)
  %8 = fcmp ugt double %1, 5.000000e+00
  br i1 %8, label %43, label %9

9:                                                ; preds = %7
  %10 = fneg float %2
  %11 = fmul float %10, %3
  %12 = fpext float %11 to double
  %13 = fmul float %2, %3
  %14 = fpext float %13 to double
  %15 = fpext float %10 to double
  %16 = fpext float %2 to double
  %17 = fsub double %14, %12
  %18 = tail call double @llvm.fabs.f64(double %17)
  %19 = getelementptr inbounds i8, ptr %0, i64 1632
  %20 = load i32, ptr %19, align 8
  %21 = sitofp i32 %20 to double
  %22 = fdiv double %18, %21
  %23 = fsub double %16, %15
  %24 = tail call double @llvm.fabs.f64(double %23)
  %25 = getelementptr inbounds i8, ptr %0, i64 1636
  %26 = load i32, ptr %25, align 4
  %27 = sitofp i32 %26 to double
  %28 = fdiv double %24, %27
  %29 = getelementptr inbounds i8, ptr %0, i64 1624
  %30 = load i32, ptr %29, align 8
  %31 = sitofp i32 %30 to double
  %32 = tail call double @llvm.fmuladd.f64(double %22, double %31, double %12)
  %33 = add nsw i32 %30, 1
  %34 = sitofp i32 %33 to double
  %35 = tail call double @llvm.fmuladd.f64(double %22, double %34, double %12)
  %36 = getelementptr inbounds i8, ptr %0, i64 1628
  %37 = load i32, ptr %36, align 4
  %38 = sitofp i32 %37 to double
  %39 = tail call double @llvm.fmuladd.f64(double %28, double %38, double %15)
  %40 = add nsw i32 %37, 1
  %41 = sitofp i32 %40 to double
  %42 = tail call double @llvm.fmuladd.f64(double %28, double %41, double %15)
  tail call void @glOrtho(double noundef %32, double noundef %35, double noundef %39, double noundef %42, double noundef %4, double noundef %5)
  br label %79

43:                                               ; preds = %7
  %44 = fmul double %1, 5.000000e-01
  %45 = fmul double %44, 0x400921FB54442D18
  %46 = fdiv double %45, 1.800000e+02
  %47 = tail call double @tan(double noundef %46) #32
  %48 = fmul double %47, %4
  %49 = fpext float %3 to double
  %50 = fmul double %48, %49
  %51 = fneg double %48
  %52 = fneg double %50
  %53 = fadd double %50, %50
  %54 = tail call double @llvm.fabs.f64(double %53)
  %55 = getelementptr inbounds i8, ptr %0, i64 1632
  %56 = load i32, ptr %55, align 8
  %57 = sitofp i32 %56 to double
  %58 = fdiv double %54, %57
  %59 = fadd double %48, %48
  %60 = tail call double @llvm.fabs.f64(double %59)
  %61 = getelementptr inbounds i8, ptr %0, i64 1636
  %62 = load i32, ptr %61, align 4
  %63 = sitofp i32 %62 to double
  %64 = fdiv double %60, %63
  %65 = getelementptr inbounds i8, ptr %0, i64 1624
  %66 = load i32, ptr %65, align 8
  %67 = sitofp i32 %66 to double
  %68 = tail call double @llvm.fmuladd.f64(double %58, double %67, double %52)
  %69 = add nsw i32 %66, 1
  %70 = sitofp i32 %69 to double
  %71 = tail call double @llvm.fmuladd.f64(double %58, double %70, double %52)
  %72 = getelementptr inbounds i8, ptr %0, i64 1628
  %73 = load i32, ptr %72, align 4
  %74 = sitofp i32 %73 to double
  %75 = tail call double @llvm.fmuladd.f64(double %64, double %74, double %51)
  %76 = add nsw i32 %73, 1
  %77 = sitofp i32 %76 to double
  %78 = tail call double @llvm.fmuladd.f64(double %64, double %77, double %51)
  tail call void @glFrustum(double noundef %68, double noundef %71, double noundef %75, double noundef %78, double noundef %4, double noundef %5)
  br label %79

79:                                               ; preds = %43, %9
  ret void
}